target datalayout = "e-m:e-p270:32:32-p271:32:32-p272:64:64-i64:64-i128:128-f80:128-n8:16:32:64-S128"
target triple = "x86_64-pc-linux-gnu"

@bio_err = external global ptr, align 8
@bio_keylog = internal global ptr null, align 8
@.str.112 = private unnamed_addr constant [2 x i8] c"a\00", align 1
@.str.113 = private unnamed_addr constant [30 x i8] c"Error writing keylog file %s\0A\00", align 1
@.str.114 = private unnamed_addr constant [50 x i8] c"# SSL/TLS secrets log file, generated by OpenSSL\0A\00", align 1

; Function Attrs: nounwind uwtable
define i32 @set_keylog_file(ptr noundef %0, ptr noundef %1) #0 {
  %3 = alloca i32, align 4
  %4 = alloca ptr, align 8
  %5 = alloca ptr, align 8
  store ptr %0, ptr %4, align 8, !tbaa !19
  store ptr %1, ptr %5, align 8, !tbaa !21
  %6 = load ptr, ptr @bio_keylog, align 8, !tbaa !14
  call void @BIO_free_all(ptr noundef %6)
  store ptr null, ptr @bio_keylog, align 8, !tbaa !14
  %7 = load ptr, ptr %4, align 8, !tbaa !19
  %8 = icmp eq ptr %7, null
  br i1 %8, label %12, label %9

9:                                                ; preds = %2
  %10 = load ptr, ptr %5, align 8, !tbaa !21
  %11 = icmp eq ptr %10, null
  br i1 %11, label %12, label %13

12:                                               ; preds = %9, %2
  store i32 0, ptr %3, align 4
  br label %34

13:                                               ; preds = %9
  %14 = load ptr, ptr %5, align 8, !tbaa !21
  %15 = call ptr @BIO_new_file(ptr noundef %14, ptr noundef @.str.112)
  store ptr %15, ptr @bio_keylog, align 8, !tbaa !14
  %16 = load ptr, ptr @bio_keylog, align 8, !tbaa !14
  %17 = icmp eq ptr %16, null
  br i1 %17, label %18, label %22

18:                                               ; preds = %13
  %19 = load ptr, ptr @bio_err, align 8, !tbaa !14
  %20 = load ptr, ptr %5, align 8, !tbaa !21
  %21 = call i32 (ptr, ptr, ...) @BIO_printf(ptr noundef %19, ptr noundef @.str.113, ptr noundef %20)
  store i32 1, ptr %3, align 4
  br label %34

22:                                               ; preds = %13
  %23 = load ptr, ptr @bio_keylog, align 8, !tbaa !14
  %24 = call i64 @BIO_ctrl(ptr noundef %23, i32 noundef 133, i64 noundef 0, ptr noundef null)
  %25 = trunc i64 %24 to i32
  %26 = icmp eq i32 %25, 0
  br i1 %26, label %27, label %32

27:                                               ; preds = %22
  %28 = load ptr, ptr @bio_keylog, align 8, !tbaa !14
  %29 = call i32 @BIO_puts(ptr noundef %28, ptr noundef @.str.114)
  %30 = load ptr, ptr @bio_keylog, align 8, !tbaa !14
  %31 = call i64 @BIO_ctrl(ptr noundef %30, i32 noundef 11, i64 noundef 0, ptr noundef null)
  br label %32

32:                                               ; preds = %27, %22
  %33 = load ptr, ptr %4, align 8, !tbaa !19
  call void @SSL_CTX_set_keylog_callback(ptr noundef %33, ptr noundef @keylog_callback)
  store i32 0, ptr %3, align 4
  br label %34

34:                                               ; preds = %32, %18, %12
  %35 = load i32, ptr %3, align 4
  ret i32 %35
}