; Function Attrs: nounwind uwtable
define range(i32 0, 2) i32 @set_keylog_file(ptr noundef %0, ptr noundef %1) local_unnamed_addr #0 {
  %3 = load ptr, ptr @bio_keylog, align 8, !tbaa !8
  tail call void @BIO_free_all(ptr noundef %3) #6
  store ptr null, ptr @bio_keylog, align 8, !tbaa !8
  %4 = icmp eq ptr %0, null
  %5 = icmp eq ptr %1, null
  %or.cond = or i1 %4, %5
  br i1 %or.cond, label %22, label %6

6:                                                ; preds = %2
  %7 = tail call ptr @BIO_new_file(ptr noundef nonnull %1, ptr noundef nonnull @.str.112) #6
  store ptr %7, ptr @bio_keylog, align 8, !tbaa !8
  %8 = icmp eq ptr %7, null
  br i1 %8, label %9, label %12

9:                                                ; preds = %6
  %10 = load ptr, ptr @bio_err, align 8, !tbaa !8
  %11 = tail call i32 (ptr, ptr, ...) @BIO_printf(ptr noundef %10, ptr noundef nonnull @.str.113, ptr noundef nonnull %1) #6
  br label %22

12:                                               ; preds = %6
  %13 = tail call i64 @BIO_ctrl(ptr noundef nonnull %7, i32 noundef 133, i64 noundef 0, ptr noundef null) #6
  %14 = and i64 %13, 4294967295
  %15 = icmp eq i64 %14, 0
  br i1 %15, label %16, label %21

16:                                               ; preds = %12
  %17 = load ptr, ptr @bio_keylog, align 8, !tbaa !8
  %18 = tail call i32 @BIO_puts(ptr noundef %17, ptr noundef nonnull @.str.114) #6
  %19 = load ptr, ptr @bio_keylog, align 8, !tbaa !8
  %20 = tail call i64 @BIO_ctrl(ptr noundef %19, i32 noundef 11, i64 noundef 0, ptr noundef null) #6
  br label %21

21:                                               ; preds = %16, %12
  tail call void @SSL_CTX_set_keylog_callback(ptr noundef nonnull %0, ptr noundef nonnull @keylog_callback) #6
  br label %22

22:                                               ; preds = %2, %21, %9
  %.0 = phi i32 [ 1, %9 ], [ 0, %21 ], [ 0, %2 ]
  ret i32 %.0
}